; ModuleID = 'source-C-CXX/61/1417.c'
source_filename = "source-C-CXX/61/1417.c"
target datalayout = "e-m:e-p270:32:32-p271:32:32-p272:64:64-i64:64-f80:128-n8:16:32:64-S128"
target triple = "x86_64-pc-linux-gnu"

; Function Attrs: nounwind sspstrong uwtable
define dso_local i32 @main() local_unnamed_addr #0 {
  %1 = tail call noalias align 16 dereferenceable_or_null(1000) i8* @malloc(i64 1000) #4
  %2 = tail call i32 (i8*, ...) bitcast (i32 (...)* @gets to i32 (i8*, ...)*)(i8* %1) #4
  br label %3

3:                                                ; preds = %18, %0
  %4 = phi i32 [ 0, %0 ], [ %23, %18 ]
  %5 = sext i32 %4 to i64
  %6 = getelementptr inbounds i8, i8* %1, i64 %5
  %7 = load i8, i8* %6, align 1, !tbaa !5
  switch i8 %7, label %18 [
    i8 0, label %24
    i8 32, label %8
  ]

8:                                                ; preds = %3, %8
  %9 = phi i64 [ %14, %8 ], [ %5, %3 ]
  %10 = getelementptr inbounds i8, i8* %1, i64 %9
  %11 = getelementptr inbounds i8, i8* %10, i64 1
  %12 = load i8, i8* %11, align 1, !tbaa !5
  %13 = icmp eq i8 %12, 32
  %14 = add i64 %9, 1
  br i1 %13, label %8, label %15, !llvm.loop !8

15:                                               ; preds = %8
  %16 = trunc i64 %9 to i32
  %17 = load i8, i8* %10, align 1, !tbaa !5
  br label %18

18:                                               ; preds = %3, %15
  %19 = phi i8 [ %17, %15 ], [ %7, %3 ]
  %20 = phi i32 [ %16, %15 ], [ %4, %3 ]
  %21 = sext i8 %19 to i32
  %22 = tail call i32 @putchar(i32 %21)
  %23 = add nsw i32 %20, 1
  br label %3, !llvm.loop !10

24:                                               ; preds = %3
  %25 = tail call i32 @putchar(i32 10)
  ret i32 0
}

; Function Attrs: inaccessiblememonly mustprogress nofree nounwind willreturn
declare noalias noundef align 16 i8* @malloc(i64 noundef) local_unnamed_addr #1

declare i32 @gets(...) local_unnamed_addr #2

; Function Attrs: nofree nounwind
declare noundef i32 @putchar(i32 noundef) local_unnamed_addr #3


!llvm.module.flags = !{!0, !1, !2, !3}
!llvm.ident = !{!4}

!0 = !{i32 1, !"wchar_size", i32 4}
!1 = !{i32 7, !"PIC Level", i32 2}
!2 = !{i32 7, !"PIE Level", i32 2}
!3 = !{i32 7, !"uwtable", i32 1}
!4 = !{!"clang version 13.0.0"}
!5 = !{!6, !6, i64 0}
!6 = !{!"omnipotent char", !7, i64 0}
!7 = !{!"Simple C/C++ TBAA"}
!8 = distinct !{!8, !9}
!9 = !{!"llvm.loop.mustprogress"}
!10 = distinct !{!10, !9}
